
uart16550.o:     file format elf32-i386


Disassembly of section .text:

00000000 <uart16550_open>:
   0:	55                   	push   %ebp
   1:	89 e5                	mov    %esp,%ebp
   3:	e8 fc ff ff ff       	call   4 <uart16550_open+0x4>
   8:	8b 80 04 02 00 00    	mov    0x204(%eax),%eax
   e:	89 82 ac 00 00 00    	mov    %eax,0xac(%edx)
  14:	31 c0                	xor    %eax,%eax
  16:	5d                   	pop    %ebp
  17:	c3                   	ret    
  18:	90                   	nop
  19:	8d b4 26 00 00 00 00 	lea    0x0(%esi,%eiz,1),%esi

00000020 <uart16550_release>:
  20:	55                   	push   %ebp
  21:	89 e5                	mov    %esp,%ebp
  23:	e8 fc ff ff ff       	call   24 <uart16550_release+0x4>
  28:	31 c0                	xor    %eax,%eax
  2a:	5d                   	pop    %ebp
  2b:	c3                   	ret    
  2c:	8d 74 26 00          	lea    0x0(%esi,%eiz,1),%esi

00000030 <uart16550_write>:
  30:	55                   	push   %ebp
  31:	89 e5                	mov    %esp,%ebp
  33:	57                   	push   %edi
  34:	56                   	push   %esi
  35:	53                   	push   %ebx
  36:	83 ec 20             	sub    $0x20,%esp
  39:	e8 fc ff ff ff       	call   3a <uart16550_write+0xa>
  3e:	8b 98 ac 00 00 00    	mov    0xac(%eax),%ebx
  44:	89 55 d8             	mov    %edx,-0x28(%ebp)
  47:	89 cf                	mov    %ecx,%edi
  49:	8b 43 54             	mov    0x54(%ebx),%eax
  4c:	2b 43 58             	sub    0x58(%ebx),%eax
  4f:	c7 45 dc 00 00 00 00 	movl   $0x0,-0x24(%ebp)
  56:	3d ff 03 00 00       	cmp    $0x3ff,%eax
  5b:	76 51                	jbe    ae <uart16550_write+0x7e>
  5d:	8d 45 ec             	lea    -0x14(%ebp),%eax
  60:	89 45 ec             	mov    %eax,-0x14(%ebp)
  63:	8d b3 d0 00 00 00    	lea    0xd0(%ebx),%esi
  69:	89 45 f0             	mov    %eax,-0x10(%ebp)
  6c:	c7 45 e0 00 00 00 00 	movl   $0x0,-0x20(%ebp)
  73:	eb 0c                	jmp    81 <uart16550_write+0x51>
  75:	8d 76 00             	lea    0x0(%esi),%esi
  78:	85 c0                	test   %eax,%eax
  7a:	75 74                	jne    f0 <uart16550_write+0xc0>
  7c:	e8 fc ff ff ff       	call   7d <uart16550_write+0x4d>
  81:	8d 55 e0             	lea    -0x20(%ebp),%edx
  84:	b9 01 00 00 00       	mov    $0x1,%ecx
  89:	89 f0                	mov    %esi,%eax
  8b:	e8 fc ff ff ff       	call   8c <uart16550_write+0x5c>
  90:	8b 53 54             	mov    0x54(%ebx),%edx
  93:	2b 53 58             	sub    0x58(%ebx),%edx
  96:	81 fa ff 03 00 00    	cmp    $0x3ff,%edx
  9c:	77 da                	ja     78 <uart16550_write+0x48>
  9e:	89 f0                	mov    %esi,%eax
  a0:	8d 55 e0             	lea    -0x20(%ebp),%edx
  a3:	e8 fc ff ff ff       	call   a4 <uart16550_write+0x74>
  a8:	8b 43 54             	mov    0x54(%ebx),%eax
  ab:	2b 43 58             	sub    0x58(%ebx),%eax
  ae:	b9 00 04 00 00       	mov    $0x400,%ecx
  b3:	29 c1                	sub    %eax,%ecx
  b5:	39 f9                	cmp    %edi,%ecx
  b7:	0f 47 cf             	cmova  %edi,%ecx
  ba:	31 c0                	xor    %eax,%eax
  bc:	85 c9                	test   %ecx,%ecx
  be:	74 23                	je     e3 <uart16550_write+0xb3>
  c0:	8d 55 dc             	lea    -0x24(%ebp),%edx
  c3:	89 14 24             	mov    %edx,(%esp)
  c6:	8b 55 d8             	mov    -0x28(%ebp),%edx
  c9:	8d 43 54             	lea    0x54(%ebx),%eax
  cc:	e8 fc ff ff ff       	call   cd <uart16550_write+0x9d>
  d1:	8b 53 3c             	mov    0x3c(%ebx),%edx
  d4:	31 c0                	xor    %eax,%eax
  d6:	83 c2 01             	add    $0x1,%edx
  d9:	ee                   	out    %al,(%dx)
  da:	b8 03 00 00 00       	mov    $0x3,%eax
  df:	ee                   	out    %al,(%dx)
  e0:	8b 45 dc             	mov    -0x24(%ebp),%eax
  e3:	83 c4 20             	add    $0x20,%esp
  e6:	5b                   	pop    %ebx
  e7:	5e                   	pop    %esi
  e8:	5f                   	pop    %edi
  e9:	5d                   	pop    %ebp
  ea:	c3                   	ret    
  eb:	90                   	nop
  ec:	8d 74 26 00          	lea    0x0(%esi,%eiz,1),%esi
  f0:	89 f0                	mov    %esi,%eax
  f2:	8d 55 e0             	lea    -0x20(%ebp),%edx
  f5:	e8 fc ff ff ff       	call   f6 <uart16550_write+0xc6>
  fa:	b8 00 fe ff ff       	mov    $0xfffffe00,%eax
  ff:	83 c4 20             	add    $0x20,%esp
 102:	5b                   	pop    %ebx
 103:	5e                   	pop    %esi
 104:	5f                   	pop    %edi
 105:	5d                   	pop    %ebp
 106:	c3                   	ret    
 107:	89 f6                	mov    %esi,%esi
 109:	8d bc 27 00 00 00 00 	lea    0x0(%edi,%eiz,1),%edi

00000110 <uart16550_read>:
 110:	55                   	push   %ebp
 111:	89 e5                	mov    %esp,%ebp
 113:	57                   	push   %edi
 114:	56                   	push   %esi
 115:	53                   	push   %ebx
 116:	83 ec 20             	sub    $0x20,%esp
 119:	e8 fc ff ff ff       	call   11a <uart16550_read+0xa>
 11e:	8b 98 ac 00 00 00    	mov    0xac(%eax),%ebx
 124:	89 cf                	mov    %ecx,%edi
 126:	8b 43 44             	mov    0x44(%ebx),%eax
 129:	8b 4b 40             	mov    0x40(%ebx),%ecx
 12c:	89 55 d8             	mov    %edx,-0x28(%ebp)
 12f:	c7 45 dc 00 00 00 00 	movl   $0x0,-0x24(%ebp)
 136:	39 c1                	cmp    %eax,%ecx
 138:	74 2e                	je     168 <uart16550_read+0x58>
 13a:	29 c1                	sub    %eax,%ecx
 13c:	39 f9                	cmp    %edi,%ecx
 13e:	0f 47 cf             	cmova  %edi,%ecx
 141:	31 c0                	xor    %eax,%eax
 143:	85 c9                	test   %ecx,%ecx
 145:	74 14                	je     15b <uart16550_read+0x4b>
 147:	8d 55 dc             	lea    -0x24(%ebp),%edx
 14a:	89 14 24             	mov    %edx,(%esp)
 14d:	8b 55 d8             	mov    -0x28(%ebp),%edx
 150:	8d 43 40             	lea    0x40(%ebx),%eax
 153:	e8 fc ff ff ff       	call   154 <uart16550_read+0x44>
 158:	8b 45 dc             	mov    -0x24(%ebp),%eax
 15b:	83 c4 20             	add    $0x20,%esp
 15e:	5b                   	pop    %ebx
 15f:	5e                   	pop    %esi
 160:	5f                   	pop    %edi
 161:	5d                   	pop    %ebp
 162:	c3                   	ret    
 163:	90                   	nop
 164:	8d 74 26 00          	lea    0x0(%esi,%eiz,1),%esi
 168:	8d 45 ec             	lea    -0x14(%ebp),%eax
 16b:	89 45 ec             	mov    %eax,-0x14(%ebp)
 16e:	8d b3 a8 00 00 00    	lea    0xa8(%ebx),%esi
 174:	89 45 f0             	mov    %eax,-0x10(%ebp)
 177:	c7 45 e0 00 00 00 00 	movl   $0x0,-0x20(%ebp)
 17e:	eb 09                	jmp    189 <uart16550_read+0x79>
 180:	85 c0                	test   %eax,%eax
 182:	75 34                	jne    1b8 <uart16550_read+0xa8>
 184:	e8 fc ff ff ff       	call   185 <uart16550_read+0x75>
 189:	8d 55 e0             	lea    -0x20(%ebp),%edx
 18c:	b9 01 00 00 00       	mov    $0x1,%ecx
 191:	89 f0                	mov    %esi,%eax
 193:	e8 fc ff ff ff       	call   194 <uart16550_read+0x84>
 198:	8b 53 44             	mov    0x44(%ebx),%edx
 19b:	39 53 40             	cmp    %edx,0x40(%ebx)
 19e:	74 e0                	je     180 <uart16550_read+0x70>
 1a0:	89 f0                	mov    %esi,%eax
 1a2:	8d 55 e0             	lea    -0x20(%ebp),%edx
 1a5:	e8 fc ff ff ff       	call   1a6 <uart16550_read+0x96>
 1aa:	8b 4b 40             	mov    0x40(%ebx),%ecx
 1ad:	8b 43 44             	mov    0x44(%ebx),%eax
 1b0:	eb 88                	jmp    13a <uart16550_read+0x2a>
 1b2:	8d b6 00 00 00 00    	lea    0x0(%esi),%esi
 1b8:	89 f0                	mov    %esi,%eax
 1ba:	8d 55 e0             	lea    -0x20(%ebp),%edx
 1bd:	e8 fc ff ff ff       	call   1be <uart16550_read+0xae>
 1c2:	b8 00 fe ff ff       	mov    $0xfffffe00,%eax
 1c7:	83 c4 20             	add    $0x20,%esp
 1ca:	5b                   	pop    %ebx
 1cb:	5e                   	pop    %esi
 1cc:	5f                   	pop    %edi
 1cd:	5d                   	pop    %ebp
 1ce:	c3                   	ret    
 1cf:	90                   	nop

000001d0 <uart16550_ioctl>:
 1d0:	55                   	push   %ebp
 1d1:	89 e5                	mov    %esp,%ebp
 1d3:	57                   	push   %edi
 1d4:	56                   	push   %esi
 1d5:	53                   	push   %ebx
 1d6:	83 ec 08             	sub    $0x8,%esp
 1d9:	e8 fc ff ff ff       	call   1da <uart16550_ioctl+0xa>
 1de:	8b b0 ac 00 00 00    	mov    0xac(%eax),%esi
 1e4:	83 fa 01             	cmp    $0x1,%edx
 1e7:	89 cb                	mov    %ecx,%ebx
 1e9:	75 6d                	jne    258 <uart16550_ioctl+0x88>
 1eb:	b9 04 00 00 00       	mov    $0x4,%ecx
 1f0:	89 da                	mov    %ebx,%edx
 1f2:	8d 45 f0             	lea    -0x10(%ebp),%eax
 1f5:	e8 fc ff ff ff       	call   1f6 <uart16550_ioctl+0x26>
 1fa:	85 c0                	test   %eax,%eax
 1fc:	75 67                	jne    265 <uart16550_ioctl+0x95>
 1fe:	8b 5e 3c             	mov    0x3c(%esi),%ebx
 201:	8d 73 03             	lea    0x3(%ebx),%esi
 204:	89 f2                	mov    %esi,%edx
 206:	ec                   	in     (%dx),%al
 207:	0f b6 4d f2          	movzbl -0xe(%ebp),%ecx
 20b:	83 e0 c0             	and    $0xffffffc0,%eax
 20e:	0a 4d f1             	or     -0xf(%ebp),%cl
 211:	0a 4d f3             	or     -0xd(%ebp),%cl
 214:	8d 7b 01             	lea    0x1(%ebx),%edi
 217:	89 fa                	mov    %edi,%edx
 219:	09 c1                	or     %eax,%ecx
 21b:	31 c0                	xor    %eax,%eax
 21d:	ee                   	out    %al,(%dx)
 21e:	89 c8                	mov    %ecx,%eax
 220:	89 f2                	mov    %esi,%edx
 222:	83 c8 80             	or     $0xffffff80,%eax
 225:	ee                   	out    %al,(%dx)
 226:	0f b6 45 f0          	movzbl -0x10(%ebp),%eax
 22a:	89 da                	mov    %ebx,%edx
 22c:	ee                   	out    %al,(%dx)
 22d:	31 c0                	xor    %eax,%eax
 22f:	89 fa                	mov    %edi,%edx
 231:	ee                   	out    %al,(%dx)
 232:	89 c8                	mov    %ecx,%eax
 234:	89 f2                	mov    %esi,%edx
 236:	83 e0 7f             	and    $0x7f,%eax
 239:	ee                   	out    %al,(%dx)
 23a:	b8 0b 00 00 00       	mov    $0xb,%eax
 23f:	8d 53 04             	lea    0x4(%ebx),%edx
 242:	ee                   	out    %al,(%dx)
 243:	b8 03 00 00 00       	mov    $0x3,%eax
 248:	89 fa                	mov    %edi,%edx
 24a:	ee                   	out    %al,(%dx)
 24b:	31 c0                	xor    %eax,%eax
 24d:	83 c4 08             	add    $0x8,%esp
 250:	5b                   	pop    %ebx
 251:	5e                   	pop    %esi
 252:	5f                   	pop    %edi
 253:	5d                   	pop    %ebp
 254:	c3                   	ret    
 255:	8d 76 00             	lea    0x0(%esi),%esi
 258:	83 c4 08             	add    $0x8,%esp
 25b:	b8 ea ff ff ff       	mov    $0xffffffea,%eax
 260:	5b                   	pop    %ebx
 261:	5e                   	pop    %esi
 262:	5f                   	pop    %edi
 263:	5d                   	pop    %ebp
 264:	c3                   	ret    
 265:	c7 04 24 00 00 00 00 	movl   $0x0,(%esp)
 26c:	e8 fc ff ff ff       	call   26d <uart16550_ioctl+0x9d>
 271:	b8 f2 ff ff ff       	mov    $0xfffffff2,%eax
 276:	eb d5                	jmp    24d <uart16550_ioctl+0x7d>
 278:	90                   	nop
 279:	8d b4 26 00 00 00 00 	lea    0x0(%esi,%eiz,1),%esi

00000280 <uart16550_interrupt_handle>:
 280:	55                   	push   %ebp
 281:	89 e5                	mov    %esp,%ebp
 283:	57                   	push   %edi
 284:	56                   	push   %esi
 285:	53                   	push   %ebx
 286:	83 ec 08             	sub    $0x8,%esp
 289:	e8 fc ff ff ff       	call   28a <uart16550_interrupt_handle+0xa>
 28e:	81 fa 00 00 00 00    	cmp    $0x0,%edx
 294:	89 d3                	mov    %edx,%ebx
 296:	74 18                	je     2b0 <uart16550_interrupt_handle+0x30>
 298:	31 f6                	xor    %esi,%esi
 29a:	81 fa f8 00 00 00    	cmp    $0xf8,%edx
 2a0:	74 0e                	je     2b0 <uart16550_interrupt_handle+0x30>
 2a2:	83 c4 08             	add    $0x8,%esp
 2a5:	89 f0                	mov    %esi,%eax
 2a7:	5b                   	pop    %ebx
 2a8:	5e                   	pop    %esi
 2a9:	5f                   	pop    %edi
 2aa:	5d                   	pop    %ebp
 2ab:	c3                   	ret    
 2ac:	8d 74 26 00          	lea    0x0(%esi,%eiz,1),%esi
 2b0:	8b 7b 3c             	mov    0x3c(%ebx),%edi
 2b3:	8d 57 02             	lea    0x2(%edi),%edx
 2b6:	ec                   	in     (%dx),%al
 2b7:	d0 e8                	shr    %al
 2b9:	be 01 00 00 00       	mov    $0x1,%esi
 2be:	83 e0 03             	and    $0x3,%eax
 2c1:	3c 01                	cmp    $0x1,%al
 2c3:	74 4b                	je     310 <uart16550_interrupt_handle+0x90>
 2c5:	3c 02                	cmp    $0x2,%al
 2c7:	75 d9                	jne    2a2 <uart16550_interrupt_handle+0x22>
 2c9:	8b 43 40             	mov    0x40(%ebx),%eax
 2cc:	2b 43 44             	sub    0x44(%ebx),%eax
 2cf:	3d ff 03 00 00       	cmp    $0x3ff,%eax
 2d4:	77 cc                	ja     2a2 <uart16550_interrupt_handle+0x22>
 2d6:	89 fa                	mov    %edi,%edx
 2d8:	ec                   	in     (%dx),%al
 2d9:	b9 01 00 00 00       	mov    $0x1,%ecx
 2de:	88 45 f3             	mov    %al,-0xd(%ebp)
 2e1:	8d 55 f3             	lea    -0xd(%ebp),%edx
 2e4:	8d 43 40             	lea    0x40(%ebx),%eax
 2e7:	e8 fc ff ff ff       	call   2e8 <uart16550_interrupt_handle+0x68>
 2ec:	8d 83 a8 00 00 00    	lea    0xa8(%ebx),%eax
 2f2:	b9 01 00 00 00       	mov    $0x1,%ecx
 2f7:	ba 01 00 00 00       	mov    $0x1,%edx
 2fc:	c7 04 24 00 00 00 00 	movl   $0x0,(%esp)
 303:	e8 fc ff ff ff       	call   304 <uart16550_interrupt_handle+0x84>
 308:	eb 98                	jmp    2a2 <uart16550_interrupt_handle+0x22>
 30a:	8d b6 00 00 00 00    	lea    0x0(%esi),%esi
 310:	8b 43 58             	mov    0x58(%ebx),%eax
 313:	39 43 54             	cmp    %eax,0x54(%ebx)
 316:	74 8a                	je     2a2 <uart16550_interrupt_handle+0x22>
 318:	8d 55 f3             	lea    -0xd(%ebp),%edx
 31b:	b9 01 00 00 00       	mov    $0x1,%ecx
 320:	8d 43 54             	lea    0x54(%ebx),%eax
 323:	e8 fc ff ff ff       	call   324 <uart16550_interrupt_handle+0xa4>
 328:	8b 53 3c             	mov    0x3c(%ebx),%edx
 32b:	0f b6 45 f3          	movzbl -0xd(%ebp),%eax
 32f:	ee                   	out    %al,(%dx)
 330:	b9 01 00 00 00       	mov    $0x1,%ecx
 335:	ba 01 00 00 00       	mov    $0x1,%edx
 33a:	8d 83 d0 00 00 00    	lea    0xd0(%ebx),%eax
 340:	c7 04 24 00 00 00 00 	movl   $0x0,(%esp)
 347:	e8 fc ff ff ff       	call   348 <uart16550_interrupt_handle+0xc8>
 34c:	e9 51 ff ff ff       	jmp    2a2 <uart16550_interrupt_handle+0x22>
 351:	eb 0d                	jmp    360 <init_module>
 353:	90                   	nop
 354:	90                   	nop
 355:	90                   	nop
 356:	90                   	nop
 357:	90                   	nop
 358:	90                   	nop
 359:	90                   	nop
 35a:	90                   	nop
 35b:	90                   	nop
 35c:	90                   	nop
 35d:	90                   	nop
 35e:	90                   	nop
 35f:	90                   	nop

00000360 <init_module>:
 360:	55                   	push   %ebp
 361:	89 e5                	mov    %esp,%ebp
 363:	56                   	push   %esi
 364:	53                   	push   %ebx
 365:	83 ec 10             	sub    $0x10,%esp
 368:	e8 fc ff ff ff       	call   369 <init_module+0x9>
 36d:	8b 0d 70 00 00 00    	mov    0x70,%ecx
 373:	8b 15 6c 00 00 00    	mov    0x6c,%edx
 379:	c7 05 24 02 00 00 04 	movl   $0x4,0x224
 380:	00 00 00 
 383:	c7 05 28 02 00 00 f8 	movl   $0x3f8,0x228
 38a:	03 00 00 
 38d:	89 c8                	mov    %ecx,%eax
 38f:	c1 e0 14             	shl    $0x14,%eax
 392:	89 c3                	mov    %eax,%ebx
 394:	83 cb 01             	or     $0x1,%ebx
 397:	83 fa 01             	cmp    $0x1,%edx
 39a:	a3 20 02 00 00       	mov    %eax,0x220
 39f:	c7 05 2c 02 00 00 01 	movl   $0x1,0x22c
 3a6:	00 00 00 
 3a9:	89 1d 30 02 00 00    	mov    %ebx,0x230
 3af:	c7 05 34 02 00 00 03 	movl   $0x3,0x234
 3b6:	00 00 00 
 3b9:	c7 05 38 02 00 00 f8 	movl   $0x2f8,0x238
 3c0:	02 00 00 
 3c3:	c7 05 3c 02 00 00 02 	movl   $0x2,0x23c
 3ca:	00 00 00 
 3cd:	0f 84 cd 01 00 00    	je     5a0 <init_module+0x240>
 3d3:	0f 8e 9f 01 00 00    	jle    578 <init_module+0x218>
 3d9:	83 fa 02             	cmp    $0x2,%edx
 3dc:	0f 84 86 00 00 00    	je     468 <init_module+0x108>
 3e2:	83 fa 03             	cmp    $0x3,%edx
 3e5:	0f 85 97 01 00 00    	jne    582 <init_module+0x222>
 3eb:	a3 44 02 00 00       	mov    %eax,0x244
 3f0:	c7 05 40 02 00 00 02 	movl   $0x2,0x240
 3f7:	00 00 00 
 3fa:	89 54 24 0c          	mov    %edx,0xc(%esp)
 3fe:	89 4c 24 08          	mov    %ecx,0x8(%esp)
 402:	c7 44 24 04 00 00 00 	movl   $0x0,0x4(%esp)
 409:	00 
 40a:	c7 04 24 54 00 00 00 	movl   $0x54,(%esp)
 411:	e8 fc ff ff ff       	call   412 <init_module+0xb2>
 416:	8b 15 40 02 00 00    	mov    0x240,%edx
 41c:	b9 00 00 00 00       	mov    $0x0,%ecx
 421:	a1 44 02 00 00       	mov    0x244,%eax
 426:	e8 fc ff ff ff       	call   427 <init_module+0xc7>
 42b:	85 c0                	test   %eax,%eax
 42d:	89 c3                	mov    %eax,%ebx
 42f:	0f 85 7f 01 00 00    	jne    5b4 <init_module+0x254>
 435:	bb 2c 02 00 00       	mov    $0x22c,%ebx
 43a:	be 00 00 00 00       	mov    $0x0,%esi
 43f:	8b 03                	mov    (%ebx),%eax
 441:	85 05 6c 00 00 00    	test   %eax,0x6c
 447:	75 37                	jne    480 <init_module+0x120>
 449:	83 c3 10             	add    $0x10,%ebx
 44c:	81 c6 f8 00 00 00    	add    $0xf8,%esi
 452:	81 fb 4c 02 00 00    	cmp    $0x24c,%ebx
 458:	75 e5                	jne    43f <init_module+0xdf>
 45a:	31 c0                	xor    %eax,%eax
 45c:	83 c4 10             	add    $0x10,%esp
 45f:	5b                   	pop    %ebx
 460:	5e                   	pop    %esi
 461:	5d                   	pop    %ebp
 462:	c3                   	ret    
 463:	90                   	nop
 464:	8d 74 26 00          	lea    0x0(%esi,%eiz,1),%esi
 468:	89 1d 44 02 00 00    	mov    %ebx,0x244
 46e:	c7 05 40 02 00 00 01 	movl   $0x1,0x240
 475:	00 00 00 
 478:	eb 80                	jmp    3fa <init_module+0x9a>
 47a:	8d b6 00 00 00 00    	lea    0x0(%esi),%esi
 480:	8b 43 fc             	mov    -0x4(%ebx),%eax
 483:	b9 01 00 00 00       	mov    $0x1,%ecx
 488:	ba 00 04 00 00       	mov    $0x400,%edx
 48d:	c7 04 24 00 00 00 00 	movl   $0x0,(%esp)
 494:	89 46 3c             	mov    %eax,0x3c(%esi)
 497:	8d 46 40             	lea    0x40(%esi),%eax
 49a:	e8 fc ff ff ff       	call   49b <init_module+0x13b>
 49f:	b9 01 00 00 00       	mov    $0x1,%ecx
 4a4:	ba 00 04 00 00       	mov    $0x400,%edx
 4a9:	8d 46 54             	lea    0x54(%esi),%eax
 4ac:	c7 04 24 00 00 00 00 	movl   $0x0,(%esp)
 4b3:	e8 fc ff ff ff       	call   4b4 <init_module+0x154>
 4b8:	8d 46 68             	lea    0x68(%esi),%eax
 4bb:	b9 08 02 00 00       	mov    $0x208,%ecx
 4c0:	ba 0a 00 00 00       	mov    $0xa,%edx
 4c5:	e8 fc ff ff ff       	call   4c6 <init_module+0x166>
 4ca:	8d 86 88 00 00 00    	lea    0x88(%esi),%eax
 4d0:	b9 00 02 00 00       	mov    $0x200,%ecx
 4d5:	ba 24 00 00 00       	mov    $0x24,%edx
 4da:	e8 fc ff ff ff       	call   4db <init_module+0x17b>
 4df:	8d 86 a8 00 00 00    	lea    0xa8(%esi),%eax
 4e5:	b9 f8 01 00 00       	mov    $0x1f8,%ecx
 4ea:	ba 3e 00 00 00       	mov    $0x3e,%edx
 4ef:	e8 fc ff ff ff       	call   4f0 <init_module+0x190>
 4f4:	8d 86 d0 00 00 00    	lea    0xd0(%esi),%eax
 4fa:	b9 f0 01 00 00       	mov    $0x1f0,%ecx
 4ff:	ba 4c 00 00 00       	mov    $0x4c,%edx
 504:	e8 fc ff ff ff       	call   505 <init_module+0x1a5>
 509:	8b 53 fc             	mov    -0x4(%ebx),%edx
 50c:	b9 08 00 00 00       	mov    $0x8,%ecx
 511:	b8 00 00 00 00       	mov    $0x0,%eax
 516:	c7 44 24 04 00 00 00 	movl   $0x0,0x4(%esp)
 51d:	00 
 51e:	c7 04 24 00 00 00 00 	movl   $0x0,(%esp)
 525:	e8 fc ff ff ff       	call   526 <init_module+0x1c6>
 52a:	85 c0                	test   %eax,%eax
 52c:	0f 84 ba 00 00 00    	je     5ec <init_module+0x28c>
 532:	8b 43 f8             	mov    -0x8(%ebx),%eax
 535:	31 c9                	xor    %ecx,%ecx
 537:	ba 00 00 00 00       	mov    $0x0,%edx
 53c:	89 74 24 08          	mov    %esi,0x8(%esp)
 540:	c7 44 24 04 00 00 00 	movl   $0x0,0x4(%esp)
 547:	00 
 548:	c7 04 24 80 00 00 00 	movl   $0x80,(%esp)
 54f:	e8 fc ff ff ff       	call   550 <init_module+0x1f0>
 554:	85 c0                	test   %eax,%eax
 556:	75 6f                	jne    5c7 <init_module+0x267>
 558:	89 f0                	mov    %esi,%eax
 55a:	ba 00 00 00 00       	mov    $0x0,%edx
 55f:	e8 fc ff ff ff       	call   560 <init_module+0x200>
 564:	8b 53 f4             	mov    -0xc(%ebx),%edx
 567:	b9 01 00 00 00       	mov    $0x1,%ecx
 56c:	89 f0                	mov    %esi,%eax
 56e:	e8 fc ff ff ff       	call   56f <init_module+0x20f>
 573:	e9 d1 fe ff ff       	jmp    449 <init_module+0xe9>
 578:	31 c0                	xor    %eax,%eax
 57a:	85 d2                	test   %edx,%edx
 57c:	0f 84 da fe ff ff    	je     45c <init_module+0xfc>
 582:	89 54 24 04          	mov    %edx,0x4(%esp)
 586:	c7 04 24 30 00 00 00 	movl   $0x30,(%esp)
 58d:	e8 fc ff ff ff       	call   58e <init_module+0x22e>
 592:	b8 ea ff ff ff       	mov    $0xffffffea,%eax
 597:	83 c4 10             	add    $0x10,%esp
 59a:	5b                   	pop    %ebx
 59b:	5e                   	pop    %esi
 59c:	5d                   	pop    %ebp
 59d:	c3                   	ret    
 59e:	66 90                	xchg   %ax,%ax
 5a0:	a3 44 02 00 00       	mov    %eax,0x244
 5a5:	c7 05 40 02 00 00 01 	movl   $0x1,0x240
 5ac:	00 00 00 
 5af:	e9 46 fe ff ff       	jmp    3fa <init_module+0x9a>
 5b4:	c7 04 24 7c 00 00 00 	movl   $0x7c,(%esp)
 5bb:	e8 fc ff ff ff       	call   5bc <init_module+0x25c>
 5c0:	89 d8                	mov    %ebx,%eax
 5c2:	e9 95 fe ff ff       	jmp    45c <init_module+0xfc>
 5c7:	8b 43 f8             	mov    -0x8(%ebx),%eax
 5ca:	c7 04 24 d8 00 00 00 	movl   $0xd8,(%esp)
 5d1:	89 44 24 04          	mov    %eax,0x4(%esp)
 5d5:	e8 fc ff ff ff       	call   5d6 <init_module+0x276>
 5da:	8b 43 fc             	mov    -0x4(%ebx),%eax
 5dd:	ba 08 00 00 00       	mov    $0x8,%edx
 5e2:	e8 fc ff ff ff       	call   5e3 <init_module+0x283>
 5e7:	e9 5d fe ff ff       	jmp    449 <init_module+0xe9>
 5ec:	8b 43 fc             	mov    -0x4(%ebx),%eax
 5ef:	c7 04 24 a8 00 00 00 	movl   $0xa8,(%esp)
 5f6:	89 44 24 04          	mov    %eax,0x4(%esp)
 5fa:	e8 fc ff ff ff       	call   5fb <init_module+0x29b>
 5ff:	e9 45 fe ff ff       	jmp    449 <init_module+0xe9>
 604:	8d b6 00 00 00 00    	lea    0x0(%esi),%esi
 60a:	8d bf 00 00 00 00    	lea    0x0(%edi),%edi

00000610 <cleanup_module>:
 610:	55                   	push   %ebp
 611:	89 e5                	mov    %esp,%ebp
 613:	56                   	push   %esi
 614:	53                   	push   %ebx
 615:	e8 fc ff ff ff       	call   616 <cleanup_module+0x6>
 61a:	bb 2c 02 00 00       	mov    $0x22c,%ebx
 61f:	be 00 00 00 00       	mov    $0x0,%esi
 624:	8b 03                	mov    (%ebx),%eax
 626:	85 05 6c 00 00 00    	test   %eax,0x6c
 62c:	75 2a                	jne    658 <cleanup_module+0x48>
 62e:	83 c3 10             	add    $0x10,%ebx
 631:	81 c6 f8 00 00 00    	add    $0xf8,%esi
 637:	81 fb 4c 02 00 00    	cmp    $0x24c,%ebx
 63d:	75 e5                	jne    624 <cleanup_module+0x14>
 63f:	8b 15 40 02 00 00    	mov    0x240,%edx
 645:	a1 44 02 00 00       	mov    0x244,%eax
 64a:	e8 fc ff ff ff       	call   64b <cleanup_module+0x3b>
 64f:	5b                   	pop    %ebx
 650:	5e                   	pop    %esi
 651:	5d                   	pop    %ebp
 652:	c3                   	ret    
 653:	90                   	nop
 654:	8d 74 26 00          	lea    0x0(%esi,%eiz,1),%esi
 658:	89 f0                	mov    %esi,%eax
 65a:	e8 fc ff ff ff       	call   65b <cleanup_module+0x4b>
 65f:	8b 43 f8             	mov    -0x8(%ebx),%eax
 662:	89 f2                	mov    %esi,%edx
 664:	e8 fc ff ff ff       	call   665 <cleanup_module+0x55>
 669:	8b 53 fc             	mov    -0x4(%ebx),%edx
 66c:	b9 08 00 00 00       	mov    $0x8,%ecx
 671:	b8 00 00 00 00       	mov    $0x0,%eax
 676:	e8 fc ff ff ff       	call   677 <cleanup_module+0x67>
 67b:	8d 46 40             	lea    0x40(%esi),%eax
 67e:	e8 fc ff ff ff       	call   67f <cleanup_module+0x6f>
 683:	8d 46 54             	lea    0x54(%esi),%eax
 686:	e8 fc ff ff ff       	call   687 <cleanup_module+0x77>
 68b:	eb a1                	jmp    62e <cleanup_module+0x1e>

Disassembly of section .modinfo:

00000000 <__UNIQUE_ID_option6>:
   0:	70 61                	jo     63 <__UNIQUE_ID_major4+0x25>
   2:	72 6d                	jb     71 <__UNIQUE_ID_majortype3+0x6>
   4:	3d 6f 70 74 69       	cmp    $0x6974706f,%eax
   9:	6f                   	outsl  %ds:(%esi),(%dx)
   a:	6e                   	outsb  %ds:(%esi),(%dx)
   b:	3a 43 4f             	cmp    0x4f(%ebx),%al
   e:	4d                   	dec    %ebp
   f:	20 70 6f             	and    %dh,0x6f(%eax)
  12:	72 74                	jb     88 <__UNIQUE_ID_license2+0xa>
  14:	73 20                	jae    36 <__UNIQUE_ID_optiontype5+0xc>
  16:	72 65                	jb     7d <__UNIQUE_ID_majortype3+0x12>
  18:	67 69 73 74 72 61 74 	imul   $0x69746172,0x74(%bp,%di),%esi
  1f:	69 
  20:	6f                   	outsl  %ds:(%esi),(%dx)
  21:	6e                   	outsb  %ds:(%esi),(%dx)
  22:	20 6f 70             	and    %ch,0x70(%edi)
  25:	74 69                	je     90 <__UNIQUE_ID_author1+0x6>
  27:	6f                   	outsl  %ds:(%esi),(%dx)
  28:	6e                   	outsb  %ds:(%esi),(%dx)
	...

0000002a <__UNIQUE_ID_optiontype5>:
  2a:	70 61                	jo     8d <__UNIQUE_ID_author1+0x3>
  2c:	72 6d                	jb     9b <__UNIQUE_ID_author1+0x11>
  2e:	74 79                	je     a9 <__UNIQUE_ID_description0+0x9>
  30:	70 65                	jo     97 <__UNIQUE_ID_author1+0xd>
  32:	3d 6f 70 74 69       	cmp    $0x6974706f,%eax
  37:	6f                   	outsl  %ds:(%esi),(%dx)
  38:	6e                   	outsb  %ds:(%esi),(%dx)
  39:	3a 69 6e             	cmp    0x6e(%ecx),%ch
  3c:	74 00                	je     3e <__UNIQUE_ID_major4>

0000003e <__UNIQUE_ID_major4>:
  3e:	70 61                	jo     a1 <__UNIQUE_ID_description0+0x1>
  40:	72 6d                	jb     af <__UNIQUE_ID_description0+0xf>
  42:	3d 6d 61 6a 6f       	cmp    $0x6f6a616d,%eax
  47:	72 3a                	jb     83 <__UNIQUE_ID_license2+0x5>
  49:	6d                   	insl   (%dx),%es:(%edi)
  4a:	61                   	popa   
  4b:	6a 6f                	push   $0x6f
  4d:	72 20                	jb     6f <__UNIQUE_ID_majortype3+0x4>
  4f:	6e                   	outsb  %ds:(%esi),(%dx)
  50:	75 6d                	jne    bf <__UNIQUE_ID_description0+0x1f>
  52:	62 65 72             	bound  %esp,0x72(%ebp)
  55:	20 66 6f             	and    %ah,0x6f(%esi)
  58:	72 20                	jb     7a <__UNIQUE_ID_majortype3+0xf>
  5a:	63 68 61             	arpl   %bp,0x61(%eax)
  5d:	72 20                	jb     7f <__UNIQUE_ID_license2+0x1>
  5f:	64                   	fs
  60:	65                   	gs
  61:	76 69                	jbe    cc <__UNIQUE_ID_description0+0x2c>
  63:	63 65 20             	arpl   %sp,0x20(%ebp)
  66:	66 69 6c 65 00 70 61 	imul   $0x6170,0x0(%ebp,%eiz,2),%bp

0000006b <__UNIQUE_ID_majortype3>:
  6b:	70 61                	jo     ce <__UNIQUE_ID_description0+0x2e>
  6d:	72 6d                	jb     dc <__UNIQUE_ID_description0+0x3c>
  6f:	74 79                	je     ea <__UNIQUE_ID_description0+0x4a>
  71:	70 65                	jo     d8 <__UNIQUE_ID_description0+0x38>
  73:	3d 6d 61 6a 6f       	cmp    $0x6f6a616d,%eax
  78:	72 3a                	jb     b4 <__UNIQUE_ID_description0+0x14>
  7a:	69 6e 74 00 6c 69 63 	imul   $0x63696c00,0x74(%esi),%ebp

0000007e <__UNIQUE_ID_license2>:
  7e:	6c                   	insb   (%dx),%es:(%edi)
  7f:	69 63 65 6e 73 65 3d 	imul   $0x3d65736e,0x65(%ebx),%esp
  86:	47                   	inc    %edi
  87:	50                   	push   %eax
  88:	4c                   	dec    %esp
	...

0000008a <__UNIQUE_ID_author1>:
  8a:	61                   	popa   
  8b:	75 74                	jne    101 <__UNIQUE_ID_description0+0x61>
  8d:	68 6f 72 3d 44       	push   $0x443d726f
  92:	72 61                	jb     f5 <__UNIQUE_ID_description0+0x55>
  94:	67 6f                	outsl  %ds:(%si),(%dx)
  96:	73 20                	jae    b8 <__UNIQUE_ID_description0+0x18>
  98:	54                   	push   %esp
  99:	61                   	popa   
  9a:	72 63                	jb     ff <__UNIQUE_ID_description0+0x5f>
  9c:	61                   	popa   
  9d:	74 75                	je     114 <uart16550_read+0x4>
	...

000000a0 <__UNIQUE_ID_description0>:
  a0:	64                   	fs
  a1:	65                   	gs
  a2:	73 63                	jae    107 <__UNIQUE_ID_description0+0x67>
  a4:	72 69                	jb     10f <__UNIQUE_ID_description0+0x6f>
  a6:	70 74                	jo     11c <uart16550_read+0xc>
  a8:	69 6f 6e 3d 55 41 52 	imul   $0x5241553d,0x6e(%edi),%ebp
  af:	54                   	push   %esp
  b0:	31 36                	xor    %esi,(%esi)
  b2:	35 35 30 20 64       	xor    $0x64203035,%eax
  b7:	65                   	gs
  b8:	76 69                	jbe    123 <uart16550_read+0x13>
  ba:	63 65 20             	arpl   %sp,0x20(%ebp)
  bd:	64                   	fs
  be:	72 69                	jb     129 <uart16550_read+0x19>
  c0:	76 65                	jbe    127 <uart16550_read+0x17>
  c2:	72 00                	jb     c4 <__UNIQUE_ID_description0+0x24>

Disassembly of section __param:

00000000 <__param_option>:
   0:	0f 00 00             	sldt   (%eax)
   3:	00 00                	add    %al,(%eax)
   5:	00 00                	add    %al,(%eax)
   7:	00 00                	add    %al,(%eax)
   9:	01 ff                	add    %edi,%edi
   b:	ff 6c 00 00          	ljmp   *0x0(%eax,%eax,1)
	...

00000010 <__param_major>:
  10:	16                   	push   %ss
	...
  19:	01 ff                	add    %edi,%edi
  1b:	ff 70 00             	pushl  0x0(%eax)
	...
